; Function Attrs: mustprogress uwtable
define dso_local noundef zeroext i1 @_ZN4Luau7isEmptyEPKNS_11TypePackVarE(ptr noundef %0) local_unnamed_addr #2 {
  %2 = tail call noundef ptr @_ZN4Luau6followEPKNS_11TypePackVarE(ptr noundef %0)
  %.not.i.i14 = icmp eq ptr %2, null
  br i1 %.not.i.i14, label %.thread, label %.lr.ph

.lr.ph:                                           ; preds = %1, %tailrecurse
  %3 = phi ptr [ %17, %tailrecurse ], [ %2, %1 ]
  %4 = load i32, ptr %3, align 8, !tbaa !49
  %5 = icmp eq i32 %4, 4
  br i1 %5, label %_ZN4Luau3getINS_8TypePackEEEPKT_PKNS_11TypePackVarE.exit, label %.thread

_ZN4Luau3getINS_8TypePackEEEPKT_PKNS_11TypePackVarE.exit: ; preds = %.lr.ph
  %6 = getelementptr inbounds nuw i8, ptr %3, i64 8
  %7 = load ptr, ptr %6, align 8, !tbaa !68
  %8 = getelementptr inbounds nuw i8, ptr %3, i64 16
  %9 = load ptr, ptr %8, align 8, !tbaa !68
  %10 = icmp eq ptr %7, %9
  br i1 %10, label %11, label %.thread

11:                                               ; preds = %_ZN4Luau3getINS_8TypePackEEEPKT_PKNS_11TypePackVarE.exit
  %12 = getelementptr inbounds nuw i8, ptr %3, i64 40
  %13 = load i8, ptr %12, align 8, !tbaa !72, !range !74, !noundef !75
  %14 = trunc nuw i8 %13 to i1
  br i1 %14, label %tailrecurse, label %.thread

tailrecurse:                                      ; preds = %11
  %15 = getelementptr inbounds nuw i8, ptr %3, i64 32
  %16 = load ptr, ptr %15, align 8, !tbaa !76
  %17 = tail call noundef ptr @_ZN4Luau6followEPKNS_11TypePackVarE(ptr noundef %16)
  %.not.i.i = icmp eq ptr %17, null
  br i1 %.not.i.i, label %.thread, label %.lr.ph

.thread:                                          ; preds = %tailrecurse, %.lr.ph, %_ZN4Luau3getINS_8TypePackEEEPKT_PKNS_11TypePackVarE.exit, %11, %1
  %18 = phi i1 [ false, %1 ], [ true, %11 ], [ false, %_ZN4Luau3getINS_8TypePackEEEPKT_PKNS_11TypePackVarE.exit ], [ false, %.lr.ph ], [ false, %tailrecurse ]
  ret i1 %18
}